target datalayout = "e-m:e-p270:32:32-p271:32:32-p272:64:64-i64:64-i128:128-f80:128-n8:16:32:64-S128"
target triple = "x86_64-pc-linux-gnu"

%struct.gss_buffer_desc_struct = type { i64, ptr }

; Function Attrs: nounwind uwtable
define hidden void @resetGSSBuffer(ptr noundef %0) #0 {
  %2 = alloca ptr, align 8
  store ptr %0, ptr %2, align 8
  %3 = load ptr, ptr %2, align 8
  %4 = icmp ne ptr %3, null
  br i1 %4, label %5, label %16

5:                                                ; preds = %1
  %6 = load ptr, ptr %2, align 8
  %7 = icmp ne ptr %6, null
  br i1 %7, label %8, label %16

8:                                                ; preds = %5
  %9 = load ptr, ptr %2, align 8
  %10 = getelementptr inbounds %struct.gss_buffer_desc_struct, ptr %9, i32 0, i32 1
  %11 = load ptr, ptr %10, align 8
  call void @free(ptr noundef %11) #5
  %12 = load ptr, ptr %2, align 8
  %13 = getelementptr inbounds %struct.gss_buffer_desc_struct, ptr %12, i32 0, i32 0
  store i64 0, ptr %13, align 8
  %14 = load ptr, ptr %2, align 8
  %15 = getelementptr inbounds %struct.gss_buffer_desc_struct, ptr %14, i32 0, i32 1
  store ptr null, ptr %15, align 8
  br label %16

16:                                               ; preds = %8, %5, %1
  ret void
}